target datalayout = "e-m:e-p270:32:32-p271:32:32-p272:64:64-i64:64-i128:128-f80:128-n8:16:32:64-S128"
target triple = "x86_64-unknown-linux-gnu"

%struct.E1000State_st = type { %struct.PCIDevice, ptr, %struct.NICConf, %struct.MemoryRegion, %struct.MemoryRegion, [32768 x i32], [32 x i16], [64 x i16], i32, i32, %struct.e1000_tx, %struct.anon, ptr, ptr, i8, i8, i32, ptr, i32, i8, i8, %struct.e1000x_txd_props }
%struct.PCIDevice = type { %struct.DeviceState, i8, i8, ptr, ptr, ptr, ptr, ptr, i32, %struct.PCIReqIDCache, [64 x i8], [7 x %struct.PCIIORegion], %struct.AddressSpace, %struct.MemoryRegion, %struct.MemoryRegion, ptr, ptr, [3 x ptr], i8, i8, i32, i8, i32, ptr, ptr, ptr, ptr, ptr, ptr, %struct.MemoryRegion, %struct.MemoryRegion, %struct.MemoryRegion, ptr, i8, i32, i8, %struct.PCIExpressDevice, ptr, ptr, i32, i8, %struct.MemoryRegion, i32, ptr, ptr, ptr, ptr, ptr, i32 }
%struct.DeviceState = type { %struct.Object, ptr, ptr, i8, i8, i64, ptr, i32, i8, ptr, %struct.NamedGPIOListHead, %struct.NamedClockListHead, %struct.BusStateHead, i32, i32, i32, %struct.ResettableState, ptr, %struct.MemReentrancyGuard }
%struct.Object = type { ptr, ptr, ptr, i32, ptr }
%struct.NamedGPIOListHead = type { ptr }
%struct.NamedClockListHead = type { ptr }
%struct.BusStateHead = type { ptr }
%struct.ResettableState = type { i32, i8, i8 }
%struct.MemReentrancyGuard = type { i8 }
%struct.PCIReqIDCache = type { ptr, i32 }
%struct.PCIIORegion = type { i64, i64, i8, ptr, ptr }
%struct.AddressSpace = type { %struct.rcu_head, ptr, ptr, ptr, i32, i32, ptr, %union.anon, %union.anon.0 }
%struct.rcu_head = type { ptr, ptr }
%union.anon = type { %struct.QTailQLink }
%struct.QTailQLink = type { ptr, ptr }
%union.anon.0 = type { %struct.QTailQLink }
%struct.PCIExpressDevice = type { i8, i8, i8, i16, %struct.PCIEAERLog, i16, i16, i16, %struct.PCIESriovPF, %struct.PCIESriovVF }
%struct.PCIEAERLog = type { i16, i16, ptr }
%struct.PCIESriovPF = type { i16, [7 x i8], ptr, ptr }
%struct.PCIESriovVF = type { ptr, i16 }
%struct.NICConf = type { %struct.MACAddr, %struct.NICPeers, i32 }
%struct.MACAddr = type { [6 x i8] }
%struct.NICPeers = type { [1024 x ptr], i32 }
%struct.MemoryRegion = type { %struct.Object, i8, i8, i8, i8, i8, i8, i8, i8, i8, i8, ptr, ptr, ptr, ptr, ptr, ptr, i32, i128, i64, ptr, i64, i8, i8, i8, i8, i8, ptr, i64, i32, %union.anon.1, %union.anon.2, %union.anon.3, ptr, i32, ptr, ptr, i8 }
%union.anon.1 = type { %struct.QTailQLink }
%union.anon.2 = type { %struct.QTailQLink }
%union.anon.3 = type { %struct.QTailQLink }
%struct.e1000_tx = type { [256 x i8], [4 x i8], [4 x i8], [65536 x i8], i16, i8, i8, i8, %struct.e1000x_txd_props, %struct.e1000x_txd_props, i16, i8 }
%struct.anon = type { i32, i16, i16, i16, i32 }
%struct.e1000x_txd_props = type { i8, i8, i16, i8, i8, i16, i32, i8, i16, i8, i8, i8 }
%struct.NetClientState = type { ptr, i32, %union.anon.17, ptr, ptr, ptr, ptr, [256 x i8], i8, ptr, i32, i8, i32, i32, i8, i8, i8, %union.anon.18 }
%union.anon.17 = type { %struct.QTailQLink }
%union.anon.18 = type { %struct.QTailQLink }

; Function Attrs: nounwind sspstrong uwtable
define internal zeroext i1 @have_autoneg(ptr noundef %s) #0 {
entry:
  %s.addr = alloca ptr, align 8
  store ptr %s, ptr %s.addr, align 8
  %0 = load ptr, ptr %s.addr, align 8
  %phy_reg = getelementptr inbounds %struct.E1000State_st, ptr %0, i32 0, i32 6
  %arrayidx = getelementptr [32 x i16], ptr %phy_reg, i64 0, i64 0
  %1 = load i16, ptr %arrayidx, align 16
  %conv = zext i16 %1 to i32
  %and = and i32 %conv, 4096
  %tobool = icmp ne i32 %and, 0
  ret i1 %tobool
}

; Function Attrs: nounwind sspstrong uwtable
define internal i32 @e1000_pre_save(ptr noundef %opaque) #0 {
entry:
  %opaque.addr = alloca ptr, align 8
  %s = alloca ptr, align 8
  %nc = alloca ptr, align 8
  store ptr %opaque, ptr %opaque.addr, align 8
  %0 = load ptr, ptr %opaque.addr, align 8
  store ptr %0, ptr %s, align 8
  %1 = load ptr, ptr %s, align 8
  %nic = getelementptr inbounds %struct.E1000State_st, ptr %1, i32 0, i32 1
  %2 = load ptr, ptr %nic, align 16
  %call = call ptr @qemu_get_queue(ptr noundef %2)
  store ptr %call, ptr %nc, align 8
  %3 = load ptr, ptr %nc, align 8
  %link_down = getelementptr inbounds %struct.NetClientState, ptr %3, i32 0, i32 1
  %4 = load i32, ptr %link_down, align 8
  %tobool = icmp ne i32 %4, 0
  br i1 %tobool, label %land.lhs.true, label %if.end

land.lhs.true:                                    ; preds = %entry
  %5 = load ptr, ptr %s, align 8
  %call1 = call zeroext i1 @have_autoneg(ptr noundef %5)
  br i1 %call1, label %if.then, label %if.end

if.then:                                          ; preds = %land.lhs.true
  %6 = load ptr, ptr %s, align 8
  %phy_reg = getelementptr inbounds %struct.E1000State_st, ptr %6, i32 0, i32 6
  %arrayidx = getelementptr [32 x i16], ptr %phy_reg, i64 0, i64 1
  %7 = load i16, ptr %arrayidx, align 2
  %conv = zext i16 %7 to i32
  %or = or i32 %conv, 32
  %conv2 = trunc i32 %or to i16
  store i16 %conv2, ptr %arrayidx, align 2
  br label %if.end

if.end:                                           ; preds = %if.then, %land.lhs.true, %entry
  %8 = load ptr, ptr %s, align 8
  %compat_flags = getelementptr inbounds %struct.E1000State_st, ptr %8, i32 0, i32 18
  %9 = load i32, ptr %compat_flags, align 8
  %and = and i32 %9, 8
  %tobool3 = icmp ne i32 %and, 0
  br i1 %tobool3, label %if.then5, label %lor.lhs.false

lor.lhs.false:                                    ; preds = %if.end
  %10 = load ptr, ptr %s, align 8
  %use_tso_for_migration = getelementptr inbounds %struct.E1000State_st, ptr %10, i32 0, i32 20
  %11 = load i8, ptr %use_tso_for_migration, align 1
  %tobool4 = trunc i8 %11 to i1
  br i1 %tobool4, label %if.else, label %if.then5

if.then5:                                         ; preds = %lor.lhs.false, %if.end
  %12 = load ptr, ptr %s, align 8
  %mig_props = getelementptr inbounds %struct.E1000State_st, ptr %12, i32 0, i32 21
  %13 = load ptr, ptr %s, align 8
  %tx = getelementptr inbounds %struct.E1000State_st, ptr %13, i32 0, i32 10
  %props = getelementptr inbounds %struct.e1000_tx, ptr %tx, i32 0, i32 8
  call void @llvm.memcpy.p0.p0.i64(ptr align 16 %mig_props, ptr align 8 %props, i64 20, i1 false)
  br label %if.end8

if.else:                                          ; preds = %lor.lhs.false
  %14 = load ptr, ptr %s, align 8
  %mig_props6 = getelementptr inbounds %struct.E1000State_st, ptr %14, i32 0, i32 21
  %15 = load ptr, ptr %s, align 8
  %tx7 = getelementptr inbounds %struct.E1000State_st, ptr %15, i32 0, i32 10
  %tso_props = getelementptr inbounds %struct.e1000_tx, ptr %tx7, i32 0, i32 9
  call void @llvm.memcpy.p0.p0.i64(ptr align 16 %mig_props6, ptr align 4 %tso_props, i64 20, i1 false)
  br label %if.end8

if.end8:                                          ; preds = %if.else, %if.then5
  ret i32 0
}