; Function Attrs: nounwind sspstrong uwtable
define internal noundef i32 @e1000_pre_save(ptr noundef captures(none) %opaque) #0 {
entry:
  %nic = getelementptr inbounds nuw i8, ptr %opaque, i64 2608
  %0 = load ptr, ptr %nic, align 16
  %call = tail call ptr @qemu_get_queue(ptr noundef %0) #13
  %link_down = getelementptr inbounds nuw i8, ptr %call, i64 8
  %1 = load i32, ptr %link_down, align 8
  %tobool.not = icmp eq i32 %1, 0
  br i1 %tobool.not, label %if.end, label %land.lhs.true

land.lhs.true:                                    ; preds = %entry
  %2 = getelementptr i8, ptr %opaque, i64 142448
  %opaque.val = load i16, ptr %2, align 16
  %3 = and i16 %opaque.val, 4096
  %tobool.i.not = icmp eq i16 %3, 0
  br i1 %tobool.i.not, label %if.end, label %if.then

if.then:                                          ; preds = %land.lhs.true
  %arrayidx = getelementptr i8, ptr %opaque, i64 142450
  %4 = load i16, ptr %arrayidx, align 2
  %5 = or i16 %4, 32
  store i16 %5, ptr %arrayidx, align 2
  br label %if.end

if.end:                                           ; preds = %if.then, %land.lhs.true, %entry
  %compat_flags = getelementptr inbounds nuw i8, ptr %opaque, i64 208552
  %6 = load i32, ptr %compat_flags, align 8
  %and = and i32 %6, 8
  %tobool3.not = icmp eq i32 %and, 0
  br i1 %tobool3.not, label %lor.lhs.false, label %if.end8

lor.lhs.false:                                    ; preds = %if.end
  %use_tso_for_migration = getelementptr inbounds nuw i8, ptr %opaque, i64 208557
  %7 = load i8, ptr %use_tso_for_migration, align 1
  %tobool4 = trunc i8 %7 to i1
  %spec.select = select i1 %tobool4, i64 208476, i64 208456
  br label %if.end8

if.end8:                                          ; preds = %lor.lhs.false, %if.end
  %.sink = phi i64 [ 208456, %if.end ], [ %spec.select, %lor.lhs.false ]
  %mig_props6 = getelementptr inbounds nuw i8, ptr %opaque, i64 208560
  %tso_props = getelementptr inbounds nuw i8, ptr %opaque, i64 %.sink
  tail call void @llvm.memcpy.p0.p0.i64(ptr noundef nonnull align 16 dereferenceable(20) %mig_props6, ptr noundef nonnull align 4 dereferenceable(20) %tso_props, i64 20, i1 false)
  ret i32 0
}